target datalayout = "e-m:e-p270:32:32-p271:32:32-p272:64:64-i64:64-i128:128-f80:128-n8:16:32:64-S128"
target triple = "x86_64-pc-linux-gnu"

%struct.anon.5 = type { i16, i32, i8, i16 }

; Function Attrs: nounwind uwtable
define hidden i32 @mbedtls_ssl_get_ecp_group_id_from_tls_id(i16 noundef zeroext %0) #0 {
  %2 = alloca i32, align 4
  %3 = alloca i16, align 2
  %4 = alloca i32, align 4
  %5 = alloca i32, align 4
  store i16 %0, ptr %3, align 2, !tbaa !115
  call void @llvm.lifetime.start.p0(i64 4, ptr %4) #11
  store i32 0, ptr %4, align 4, !tbaa !10
  br label %6

6:                                                ; preds = %32, %1
  %7 = load i32, ptr %4, align 4, !tbaa !10
  %8 = sext i32 %7 to i64
  %9 = getelementptr inbounds [14 x %struct.anon.5], ptr @tls_id_match_table, i64 0, i64 %8
  %10 = getelementptr inbounds nuw %struct.anon.5, ptr %9, i32 0, i32 0
  %11 = load i16, ptr %10, align 4, !tbaa !276
  %12 = zext i16 %11 to i32
  %13 = icmp ne i32 %12, 0
  br i1 %13, label %15, label %14

14:                                               ; preds = %6
  store i32 2, ptr %5, align 4
  br label %35

15:                                               ; preds = %6
  %16 = load i32, ptr %4, align 4, !tbaa !10
  %17 = sext i32 %16 to i64
  %18 = getelementptr inbounds [14 x %struct.anon.5], ptr @tls_id_match_table, i64 0, i64 %17
  %19 = getelementptr inbounds nuw %struct.anon.5, ptr %18, i32 0, i32 0
  %20 = load i16, ptr %19, align 4, !tbaa !276
  %21 = zext i16 %20 to i32
  %22 = load i16, ptr %3, align 2, !tbaa !115
  %23 = zext i16 %22 to i32
  %24 = icmp eq i32 %21, %23
  br i1 %24, label %25, label %31

25:                                               ; preds = %15
  %26 = load i32, ptr %4, align 4, !tbaa !10
  %27 = sext i32 %26 to i64
  %28 = getelementptr inbounds [14 x %struct.anon.5], ptr @tls_id_match_table, i64 0, i64 %27
  %29 = getelementptr inbounds nuw %struct.anon.5, ptr %28, i32 0, i32 1
  %30 = load i32, ptr %29, align 4, !tbaa !274
  store i32 %30, ptr %2, align 4
  store i32 1, ptr %5, align 4
  br label %35

31:                                               ; preds = %15
  br label %32

32:                                               ; preds = %31
  %33 = load i32, ptr %4, align 4, !tbaa !10
  %34 = add nsw i32 %33, 1
  store i32 %34, ptr %4, align 4, !tbaa !10
  br label %6, !llvm.loop !281

35:                                               ; preds = %25, %14
  call void @llvm.lifetime.end.p0(i64 4, ptr %4) #11
  %36 = load i32, ptr %5, align 4
  switch i32 %36, label %40 [
    i32 2, label %37
    i32 1, label %38
  ]

37:                                               ; preds = %35
  store i32 0, ptr %2, align 4
  br label %38

38:                                               ; preds = %37, %35
  %39 = load i32, ptr %2, align 4
  ret i32 %39

40:                                               ; preds = %35
  unreachable
}