; Function Attrs: nofree norecurse nosync nounwind memory(none) uwtable
define hidden i32 @mbedtls_ssl_get_ecp_group_id_from_tls_id(i16 noundef zeroext %0) local_unnamed_addr #21 {
  %2 = icmp eq i16 %0, 25
  br i1 %2, label %._crit_edge, label %.lr.ph

.lr.ph:                                           ; preds = %1, %3
  %indvars.iv15 = phi i64 [ %indvars.iv.next, %3 ], [ 0, %1 ]
  %indvars.iv.next = add nuw nsw i64 %indvars.iv15, 1
  %exitcond = icmp eq i64 %indvars.iv.next, 13
  br i1 %exitcond, label %.loopexit, label %3, !llvm.loop !253

3:                                                ; preds = %.lr.ph
  %4 = getelementptr inbounds nuw [14 x %struct.anon.5], ptr @tls_id_match_table, i64 0, i64 %indvars.iv.next
  %5 = load i16, ptr %4, align 4, !tbaa !101
  %6 = icmp eq i16 %5, %0
  br i1 %6, label %._crit_edge, label %.lr.ph, !llvm.loop !253

._crit_edge:                                      ; preds = %3, %1
  %.lcssa = phi ptr [ @tls_id_match_table, %1 ], [ %4, %3 ]
  %7 = getelementptr inbounds nuw i8, ptr %.lcssa, i64 4
  %8 = load i32, ptr %7, align 4, !tbaa !99
  br label %.loopexit

.loopexit:                                        ; preds = %.lr.ph, %._crit_edge
  %spec.select = phi i32 [ %8, %._crit_edge ], [ 0, %.lr.ph ]
  ret i32 %spec.select
}